target datalayout = "e-m:e-p270:32:32-p271:32:32-p272:64:64-i64:64-i128:128-f80:128-n8:16:32:64-S128"
target triple = "x86_64-pc-linux-gnu"

%"class.gmx::PositionCalculationCollection::Impl" = type { ptr, ptr, ptr, i8, %"class.std::vector.5", %"class.std::vector.5" }
%"class.std::vector.5" = type { %"struct.std::_Vector_base.6" }
%"struct.std::_Vector_base.6" = type { %"struct.std::_Vector_base<int, std::allocator<int>>::_Vector_impl" }
%"struct.std::_Vector_base<int, std::allocator<int>>::_Vector_impl" = type { %"struct.std::_Vector_base<int, std::allocator<int>>::_Vector_impl_data" }
%"struct.std::_Vector_base<int, std::allocator<int>>::_Vector_impl_data" = type { ptr, ptr, ptr }
%struct.gmx_ana_poscalc_t = type { i32, i32, i32, %struct.t_blocka, ptr, %struct.gmx_ana_index_t, ptr, i8, ptr, ptr, ptr, i32, ptr }
%struct.t_blocka = type { i32, ptr, i32, ptr, i32, i32 }
%struct.gmx_ana_index_t = type { i32, ptr, i32 }
%class.anon = type { i8 }

@.str.18 = private unnamed_addr constant [127 x i8] c"generated/home/dtcxzyw/WorkSpace/Projects/compilers/llvm-opt-benchmark/bench/gromacs/gromacs/src/gromacs/selection/poscalc.cpp\00", align 1
@.str.21 = private unnamed_addr constant [17 x i8] c"pc->coll == this\00", align 1
@.str.22 = private unnamed_addr constant [25 x i8] c"Inconsistent collections\00", align 1

; Function Attrs: inlinehint mustprogress uwtable
define internal void @"_ZZN3gmx29PositionCalculationCollection4Impl17insertCalculationEP17gmx_ana_poscalc_tS3_ENK3$_0clEv"(ptr noundef nonnull align 1 dereferenceable(1) %0) #2 align 2 {
  %2 = alloca ptr, align 8
  store ptr %0, ptr %2, align 8, !tbaa !9
  call void @_ZN3gmx8internal13assertHandlerEPKcS2_S2_S2_i(ptr noundef @.str.21, ptr noundef @.str.22, ptr noundef @"__PRETTY_FUNCTION__._ZZN3gmx29PositionCalculationCollection4Impl17insertCalculationEP17gmx_ana_poscalc_tS3_ENK3$_0clEv", ptr noundef @.str.18, i32 noundef 387) #18
  unreachable
}

; Function Attrs: mustprogress uwtable
define void @_ZN3gmx29PositionCalculationCollection4Impl17insertCalculationEP17gmx_ana_poscalc_tS3_(ptr noundef nonnull align 8 dereferenceable(80) %0, ptr noundef %1, ptr noundef %2) #0 align 2 {
  %4 = alloca ptr, align 8
  %5 = alloca ptr, align 8
  %6 = alloca ptr, align 8
  %7 = alloca %class.anon, align 1
  store ptr %0, ptr %4, align 8, !tbaa !134
  store ptr %1, ptr %5, align 8, !tbaa !171
  store ptr %2, ptr %6, align 8, !tbaa !171
  %8 = load ptr, ptr %4, align 8
  %9 = load ptr, ptr %5, align 8, !tbaa !171
  %10 = getelementptr inbounds nuw %struct.gmx_ana_poscalc_t, ptr %9, i32 0, i32 12
  %11 = load ptr, ptr %10, align 8, !tbaa !172
  %12 = icmp eq ptr %11, %8
  call void @llvm.lifetime.start.p0(i64 1, ptr %7) #17
  br i1 %12, label %13, label %14

13:                                               ; preds = %3
  br label %15

14:                                               ; preds = %3
  call void @"_ZZN3gmx29PositionCalculationCollection4Impl17insertCalculationEP17gmx_ana_poscalc_tS3_ENK3$_0clEv"(ptr noundef nonnull align 1 dereferenceable(1) %7)
  br label %15

15:                                               ; preds = %14, %13
  call void @llvm.lifetime.end.p0(i64 1, ptr %7) #17
  %16 = load ptr, ptr %6, align 8, !tbaa !171
  %17 = icmp eq ptr %16, null
  br i1 %17, label %18, label %36

18:                                               ; preds = %15
  %19 = load ptr, ptr %5, align 8, !tbaa !171
  %20 = getelementptr inbounds nuw %struct.gmx_ana_poscalc_t, ptr %19, i32 0, i32 9
  store ptr null, ptr %20, align 8, !tbaa !181
  %21 = getelementptr inbounds nuw %"class.gmx::PositionCalculationCollection::Impl", ptr %8, i32 0, i32 2
  %22 = load ptr, ptr %21, align 8, !tbaa !145
  %23 = load ptr, ptr %5, align 8, !tbaa !171
  %24 = getelementptr inbounds nuw %struct.gmx_ana_poscalc_t, ptr %23, i32 0, i32 10
  store ptr %22, ptr %24, align 8, !tbaa !182
  %25 = getelementptr inbounds nuw %"class.gmx::PositionCalculationCollection::Impl", ptr %8, i32 0, i32 2
  %26 = load ptr, ptr %25, align 8, !tbaa !145
  %27 = icmp ne ptr %26, null
  br i1 %27, label %28, label %33

28:                                               ; preds = %18
  %29 = load ptr, ptr %5, align 8, !tbaa !171
  %30 = getelementptr inbounds nuw %"class.gmx::PositionCalculationCollection::Impl", ptr %8, i32 0, i32 2
  %31 = load ptr, ptr %30, align 8, !tbaa !145
  %32 = getelementptr inbounds nuw %struct.gmx_ana_poscalc_t, ptr %31, i32 0, i32 9
  store ptr %29, ptr %32, align 8, !tbaa !181
  br label %33

33:                                               ; preds = %28, %18
  %34 = load ptr, ptr %5, align 8, !tbaa !171
  %35 = getelementptr inbounds nuw %"class.gmx::PositionCalculationCollection::Impl", ptr %8, i32 0, i32 2
  store ptr %34, ptr %35, align 8, !tbaa !145
  br label %59

36:                                               ; preds = %15
  %37 = load ptr, ptr %6, align 8, !tbaa !171
  %38 = getelementptr inbounds nuw %struct.gmx_ana_poscalc_t, ptr %37, i32 0, i32 10
  %39 = load ptr, ptr %38, align 8, !tbaa !182
  %40 = load ptr, ptr %5, align 8, !tbaa !171
  %41 = getelementptr inbounds nuw %struct.gmx_ana_poscalc_t, ptr %40, i32 0, i32 10
  store ptr %39, ptr %41, align 8, !tbaa !182
  %42 = load ptr, ptr %6, align 8, !tbaa !171
  %43 = load ptr, ptr %5, align 8, !tbaa !171
  %44 = getelementptr inbounds nuw %struct.gmx_ana_poscalc_t, ptr %43, i32 0, i32 9
  store ptr %42, ptr %44, align 8, !tbaa !181
  %45 = load ptr, ptr %6, align 8, !tbaa !171
  %46 = getelementptr inbounds nuw %struct.gmx_ana_poscalc_t, ptr %45, i32 0, i32 10
  %47 = load ptr, ptr %46, align 8, !tbaa !182
  %48 = icmp ne ptr %47, null
  br i1 %48, label %49, label %55

49:                                               ; preds = %36
  %50 = load ptr, ptr %5, align 8, !tbaa !171
  %51 = load ptr, ptr %6, align 8, !tbaa !171
  %52 = getelementptr inbounds nuw %struct.gmx_ana_poscalc_t, ptr %51, i32 0, i32 10
  %53 = load ptr, ptr %52, align 8, !tbaa !182
  %54 = getelementptr inbounds nuw %struct.gmx_ana_poscalc_t, ptr %53, i32 0, i32 9
  store ptr %50, ptr %54, align 8, !tbaa !181
  br label %55

55:                                               ; preds = %49, %36
  %56 = load ptr, ptr %5, align 8, !tbaa !171
  %57 = load ptr, ptr %6, align 8, !tbaa !171
  %58 = getelementptr inbounds nuw %struct.gmx_ana_poscalc_t, ptr %57, i32 0, i32 10
  store ptr %56, ptr %58, align 8, !tbaa !182
  br label %59

59:                                               ; preds = %55, %33
  %60 = load ptr, ptr %5, align 8, !tbaa !171
  %61 = getelementptr inbounds nuw %struct.gmx_ana_poscalc_t, ptr %60, i32 0, i32 10
  %62 = load ptr, ptr %61, align 8, !tbaa !182
  %63 = icmp eq ptr %62, null
  br i1 %63, label %64, label %67

64:                                               ; preds = %59
  %65 = load ptr, ptr %5, align 8, !tbaa !171
  %66 = getelementptr inbounds nuw %"class.gmx::PositionCalculationCollection::Impl", ptr %8, i32 0, i32 1
  store ptr %65, ptr %66, align 8, !tbaa !144
  br label %67

67:                                               ; preds = %64, %59
  ret void
}