; Function Attrs: mustprogress uwtable
define void @_ZN3gmx29PositionCalculationCollection4Impl17insertCalculationEP17gmx_ana_poscalc_tS3_(ptr noundef nonnull align 8 dereferenceable(80) %0, ptr noundef %1, ptr noundef %2) local_unnamed_addr #0 align 2 {
  %4 = getelementptr inbounds nuw i8, ptr %1, i64 136
  %5 = load ptr, ptr %4, align 8, !tbaa !70
  %6 = icmp eq ptr %5, %0
  br i1 %6, label %8, label %7

7:                                                ; preds = %3
  tail call void @_ZN3gmx8internal13assertHandlerEPKcS2_S2_S2_i(ptr noundef nonnull @.str.21, ptr noundef nonnull @.str.22, ptr noundef nonnull @"__PRETTY_FUNCTION__._ZZN3gmx29PositionCalculationCollection4Impl17insertCalculationEP17gmx_ana_poscalc_tS3_ENK3$_0clEv", ptr noundef nonnull @.str.18, i32 noundef 387) #27
  unreachable

8:                                                ; preds = %3
  %9 = icmp eq ptr %2, null
  br i1 %9, label %10, label %18

10:                                               ; preds = %8
  %11 = getelementptr inbounds nuw i8, ptr %1, i64 112
  store ptr null, ptr %11, align 8, !tbaa !72
  %12 = getelementptr inbounds nuw i8, ptr %0, i64 16
  %13 = load ptr, ptr %12, align 8, !tbaa !48
  %14 = getelementptr inbounds nuw i8, ptr %1, i64 120
  store ptr %13, ptr %14, align 8, !tbaa !71
  %.not20 = icmp eq ptr %13, null
  br i1 %.not20, label %17, label %15

15:                                               ; preds = %10
  %16 = getelementptr inbounds nuw i8, ptr %13, i64 112
  store ptr %1, ptr %16, align 8, !tbaa !72
  br label %17

17:                                               ; preds = %15, %10
  store ptr %1, ptr %12, align 8, !tbaa !48
  br label %26

18:                                               ; preds = %8
  %19 = getelementptr inbounds nuw i8, ptr %2, i64 120
  %20 = load ptr, ptr %19, align 8, !tbaa !71
  %21 = getelementptr inbounds nuw i8, ptr %1, i64 120
  store ptr %20, ptr %21, align 8, !tbaa !71
  %22 = getelementptr inbounds nuw i8, ptr %1, i64 112
  store ptr %2, ptr %22, align 8, !tbaa !72
  %.not = icmp eq ptr %20, null
  br i1 %.not, label %25, label %23

23:                                               ; preds = %18
  %24 = getelementptr inbounds nuw i8, ptr %20, i64 112
  store ptr %1, ptr %24, align 8, !tbaa !72
  br label %25

25:                                               ; preds = %23, %18
  store ptr %1, ptr %19, align 8, !tbaa !71
  %.pre = load ptr, ptr %21, align 8, !tbaa !71
  br label %26

26:                                               ; preds = %25, %17
  %27 = phi ptr [ %.pre, %25 ], [ %13, %17 ]
  %28 = icmp eq ptr %27, null
  br i1 %28, label %29, label %31

29:                                               ; preds = %26
  %30 = getelementptr inbounds nuw i8, ptr %0, i64 8
  store ptr %1, ptr %30, align 8, !tbaa !73
  br label %31

31:                                               ; preds = %29, %26
  ret void
}